target datalayout = "e-m:e-p270:32:32-p271:32:32-p272:64:64-i64:64-i128:128-f80:128-n8:16:32:64-S128"
target triple = "x86_64-pc-linux-gnu"

; Function Attrs: nounwind uwtable
define hidden i32 @uv__tcp_keepalive(i32 noundef %0, i32 noundef %1, i32 noundef %2) #0 {
  %4 = alloca i32, align 4
  %5 = alloca i32, align 4
  %6 = alloca i32, align 4
  %7 = alloca i32, align 4
  %8 = alloca i32, align 4
  %9 = alloca i32, align 4
  %10 = alloca i32, align 4
  %11 = alloca i32, align 4
  store i32 %0, ptr %5, align 4
  store i32 %1, ptr %6, align 4
  store i32 %2, ptr %7, align 4
  call void @llvm.lifetime.start.p0(i64 4, ptr %8) #8
  call void @llvm.lifetime.start.p0(i64 4, ptr %9) #8
  call void @llvm.lifetime.start.p0(i64 4, ptr %10) #8
  %12 = load i32, ptr %5, align 4
  %13 = call i32 @setsockopt(i32 noundef %12, i32 noundef 1, i32 noundef 9, ptr noundef %6, i32 noundef 4) #8
  %14 = icmp ne i32 %13, 0
  br i1 %14, label %15, label %19

15:                                               ; preds = %3
  %16 = call ptr @__errno_location() #9
  %17 = load i32, ptr %16, align 4
  %18 = sub nsw i32 0, %17
  store i32 %18, ptr %4, align 4
  store i32 1, ptr %11, align 4
  br label %53

19:                                               ; preds = %3
  %20 = load i32, ptr %6, align 4
  %21 = icmp ne i32 %20, 0
  br i1 %21, label %23, label %22

22:                                               ; preds = %19
  store i32 0, ptr %4, align 4
  store i32 1, ptr %11, align 4
  br label %53

23:                                               ; preds = %19
  %24 = load i32, ptr %7, align 4
  %25 = icmp ult i32 %24, 1
  br i1 %25, label %26, label %27

26:                                               ; preds = %23
  store i32 -22, ptr %4, align 4
  store i32 1, ptr %11, align 4
  br label %53

27:                                               ; preds = %23
  %28 = load i32, ptr %7, align 4
  store i32 %28, ptr %8, align 4
  %29 = load i32, ptr %5, align 4
  %30 = call i32 @setsockopt(i32 noundef %29, i32 noundef 6, i32 noundef 4, ptr noundef %8, i32 noundef 4) #8
  %31 = icmp ne i32 %30, 0
  br i1 %31, label %32, label %36

32:                                               ; preds = %27
  %33 = call ptr @__errno_location() #9
  %34 = load i32, ptr %33, align 4
  %35 = sub nsw i32 0, %34
  store i32 %35, ptr %4, align 4
  store i32 1, ptr %11, align 4
  br label %53

36:                                               ; preds = %27
  store i32 1, ptr %9, align 4
  %37 = load i32, ptr %5, align 4
  %38 = call i32 @setsockopt(i32 noundef %37, i32 noundef 6, i32 noundef 5, ptr noundef %9, i32 noundef 4) #8
  %39 = icmp ne i32 %38, 0
  br i1 %39, label %40, label %44

40:                                               ; preds = %36
  %41 = call ptr @__errno_location() #9
  %42 = load i32, ptr %41, align 4
  %43 = sub nsw i32 0, %42
  store i32 %43, ptr %4, align 4
  store i32 1, ptr %11, align 4
  br label %53

44:                                               ; preds = %36
  store i32 10, ptr %10, align 4
  %45 = load i32, ptr %5, align 4
  %46 = call i32 @setsockopt(i32 noundef %45, i32 noundef 6, i32 noundef 6, ptr noundef %10, i32 noundef 4) #8
  %47 = icmp ne i32 %46, 0
  br i1 %47, label %48, label %52

48:                                               ; preds = %44
  %49 = call ptr @__errno_location() #9
  %50 = load i32, ptr %49, align 4
  %51 = sub nsw i32 0, %50
  store i32 %51, ptr %4, align 4
  store i32 1, ptr %11, align 4
  br label %53

52:                                               ; preds = %44
  store i32 0, ptr %4, align 4
  store i32 1, ptr %11, align 4
  br label %53

53:                                               ; preds = %52, %48, %40, %32, %26, %22, %15
  call void @llvm.lifetime.end.p0(i64 4, ptr %10) #8
  call void @llvm.lifetime.end.p0(i64 4, ptr %9) #8
  call void @llvm.lifetime.end.p0(i64 4, ptr %8) #8
  %54 = load i32, ptr %4, align 4
  ret i32 %54
}