; Function Attrs: nounwind uwtable
define hidden range(i32 -2147483647, -2147483648) i32 @uv__tcp_keepalive(i32 noundef %0, i32 noundef %1, i32 noundef %2) local_unnamed_addr #0 {
  %4 = alloca i32, align 4
  %5 = alloca i32, align 4
  %6 = alloca i32, align 4
  %7 = alloca i32, align 4
  store i32 %1, ptr %4, align 4
  call void @llvm.lifetime.start.p0(i64 4, ptr nonnull %5) #7
  call void @llvm.lifetime.start.p0(i64 4, ptr nonnull %6) #7
  call void @llvm.lifetime.start.p0(i64 4, ptr nonnull %7) #7
  %8 = call i32 @setsockopt(i32 noundef %0, i32 noundef 1, i32 noundef 9, ptr noundef nonnull %4, i32 noundef 4) #7
  %.not = icmp eq i32 %8, 0
  br i1 %.not, label %9, label %.sink.split

9:                                                ; preds = %3
  %10 = load i32, ptr %4, align 4
  %.not8 = icmp eq i32 %10, 0
  br i1 %.not8, label %22, label %11

11:                                               ; preds = %9
  %12 = icmp eq i32 %2, 0
  br i1 %12, label %22, label %13

13:                                               ; preds = %11
  store i32 %2, ptr %5, align 4
  %14 = call i32 @setsockopt(i32 noundef %0, i32 noundef 6, i32 noundef 4, ptr noundef nonnull %5, i32 noundef 4) #7
  %.not9 = icmp eq i32 %14, 0
  br i1 %.not9, label %15, label %.sink.split

15:                                               ; preds = %13
  store i32 1, ptr %6, align 4
  %16 = call i32 @setsockopt(i32 noundef %0, i32 noundef 6, i32 noundef 5, ptr noundef nonnull %6, i32 noundef 4) #7
  %.not10 = icmp eq i32 %16, 0
  br i1 %.not10, label %17, label %.sink.split

17:                                               ; preds = %15
  store i32 10, ptr %7, align 4
  %18 = call i32 @setsockopt(i32 noundef %0, i32 noundef 6, i32 noundef 6, ptr noundef nonnull %7, i32 noundef 4) #7
  %.not11 = icmp eq i32 %18, 0
  br i1 %.not11, label %22, label %.sink.split

.sink.split:                                      ; preds = %17, %15, %13, %3
  %19 = tail call ptr @__errno_location() #8
  %20 = load i32, ptr %19, align 4
  %21 = sub nsw i32 0, %20
  br label %22

22:                                               ; preds = %.sink.split, %17, %11, %9
  %.0 = phi i32 [ 0, %9 ], [ -22, %11 ], [ 0, %17 ], [ %21, %.sink.split ]
  call void @llvm.lifetime.end.p0(i64 4, ptr nonnull %7) #7
  call void @llvm.lifetime.end.p0(i64 4, ptr nonnull %6) #7
  call void @llvm.lifetime.end.p0(i64 4, ptr nonnull %5) #7
  ret i32 %.0
}